
test.elf:     file format elf32-littlearm


Disassembly of section .text:

00010000 <_start>:
   10000:	ea000006 	b	10020 <reset>
   10004:	ea000017 	b	10068 <undefined>
   10008:	ea000017 	b	1006c <syscall>
   1000c:	ea000017 	b	10070 <prefetch_abort>
   10010:	ea000017 	b	10074 <data_abort>
   10014:	ea000017 	b	10078 <reserved>
   10018:	ea000017 	b	1007c <irq>
   1001c:	ea000017 	b	10080 <fiq>

00010020 <reset>:
   10020:	ee110f10 	mrc	15, 0, r0, cr1, cr0, {0}
   10024:	e3c00a0b 	bic	r0, r0, #45056	; 0xb000
   10028:	e3c00005 	bic	r0, r0, #5
   1002c:	e3800002 	orr	r0, r0, #2
   10030:	ee010f10 	mcr	15, 0, r0, cr1, cr0, {0}

00010034 <stack_setup>:
   10034:	e59fd048 	ldr	sp, [pc, #72]	; 10084 <fiq+0x4>
   10038:	eb00002f 	bl	100fc <c_entry>
   1003c:	eafffffe 	b	1003c <stack_setup+0x8>

00010040 <arm_context_switch>:
   10040:	e24d302c 	sub	r3, sp, #44	; 0x2c
   10044:	e1a0c00e 	mov	ip, lr
   10048:	e8c37ff0 	stmia	r3, {r4, r5, r6, r7, r8, r9, sl, fp, ip, sp, lr}^
   1004c:	e5803000 	str	r3, [r0]
   10050:	e59f0030 	ldr	r0, [pc, #48]	; 10088 <fiq+0x8>
   10054:	e1803f92 	strex	r3, r2, [r0]
   10058:	e8d17ff0 	ldm	r1, {r4, r5, r6, r7, r8, r9, sl, fp, ip, sp, lr}^
   1005c:	e1a0e00c 	mov	lr, ip
   10060:	e281d02c 	add	sp, r1, #44	; 0x2c
   10064:	e12fff1e 	bx	lr

00010068 <undefined>:
   10068:	eafffffe 	b	10068 <undefined>

0001006c <syscall>:
   1006c:	eafffffe 	b	1006c <syscall>

00010070 <prefetch_abort>:
   10070:	eafffffe 	b	10070 <prefetch_abort>

00010074 <data_abort>:
   10074:	eafffffe 	b	10074 <data_abort>

00010078 <reserved>:
   10078:	eafffffe 	b	10078 <reserved>

0001007c <irq>:
   1007c:	eafffffe 	b	1007c <irq>

00010080 <fiq>:
   10080:	eafffffe 	b	10080 <fiq>
   10084:	000122e8 	.word	0x000122e8
   10088:	0001008c 	.word	0x0001008c

0001008c <strex_spot>:
   1008c:	00000000 	.word	0x00000000
   10090:	00001741 	.word	0x00001741
   10094:	61656100 	.word	0x61656100
   10098:	01006962 	.word	0x01006962
   1009c:	0000000d 	.word	0x0000000d
   100a0:	01080606 	.word	0x01080606
   100a4:	012c0109 	.word	0x012c0109

000100a8 <func1>:
   100a8:	e59f3018 	ldr	r3, [pc, #24]	; 100c8 <func1+0x20>
   100ac:	e59f1018 	ldr	r1, [pc, #24]	; 100cc <func1+0x24>
   100b0:	e5d32000 	ldrb	r2, [r3]
   100b4:	e3520000 	cmp	r2, #0
   100b8:	059f3008 	ldreq	r3, [pc, #8]	; 100c8 <func1+0x20>
   100bc:	15812000 	strne	r2, [r1]
   100c0:	12833001 	addne	r3, r3, #1
   100c4:	eafffff9 	b	100b0 <func1+0x8>
   100c8:	00010244 	.word	0x00010244
   100cc:	101f1000 	.word	0x101f1000

000100d0 <func2>:
   100d0:	eafffffe 	b	100d0 <func2>

000100d4 <print_uart0>:
   100d4:	e5d03000 	ldrb	r3, [r0]
   100d8:	e3530000 	cmp	r3, #0
   100dc:	012fff1e 	bxeq	lr
   100e0:	e59f2010 	ldr	r2, [pc, #16]	; 100f8 <print_uart0+0x24>
   100e4:	e5823000 	str	r3, [r2]
   100e8:	e5f03001 	ldrb	r3, [r0, #1]!
   100ec:	e3530000 	cmp	r3, #0
   100f0:	1afffffb 	bne	100e4 <print_uart0+0x10>
   100f4:	e12fff1e 	bx	lr
   100f8:	101f1000 	.word	0x101f1000

000100fc <c_entry>:
   100fc:	e92d4070 	push	{r4, r5, r6, lr}
   10100:	e59f306c 	ldr	r3, [pc, #108]	; 10174 <c_entry+0x78>
   10104:	e59f206c 	ldr	r2, [pc, #108]	; 10178 <c_entry+0x7c>
   10108:	e24dd008 	sub	sp, sp, #8
   1010c:	e3a04073 	mov	r4, #115	; 0x73
   10110:	e5824000 	str	r4, [r2]
   10114:	e5f34001 	ldrb	r4, [r3, #1]!
   10118:	e3540000 	cmp	r4, #0
   1011c:	1afffffb 	bne	10110 <c_entry+0x14>
   10120:	e59f6054 	ldr	r6, [pc, #84]	; 1017c <c_entry+0x80>
   10124:	e3a05c01 	mov	r5, #256	; 0x100
   10128:	e5963000 	ldr	r3, [r6]
   1012c:	e1a02004 	mov	r2, r4
   10130:	e59f0048 	ldr	r0, [pc, #72]	; 10180 <c_entry+0x84>
   10134:	e59f1048 	ldr	r1, [pc, #72]	; 10184 <c_entry+0x88>
   10138:	e58d5000 	str	r5, [sp]
   1013c:	eb000020 	bl	101c4 <arch_task_initialize>
   10140:	e5963000 	ldr	r3, [r6]
   10144:	e59f003c 	ldr	r0, [pc, #60]	; 10188 <c_entry+0x8c>
   10148:	e59f103c 	ldr	r1, [pc, #60]	; 1018c <c_entry+0x90>
   1014c:	e1a02004 	mov	r2, r4
   10150:	e2833064 	add	r3, r3, #100	; 0x64
   10154:	e58d5000 	str	r5, [sp]
   10158:	eb000019 	bl	101c4 <arch_task_initialize>
   1015c:	e59f001c 	ldr	r0, [pc, #28]	; 10180 <c_entry+0x84>
   10160:	e59f1020 	ldr	r1, [pc, #32]	; 10188 <c_entry+0x8c>
   10164:	eb00002f 	bl	10228 <arch_context_switch>
   10168:	e28dd008 	add	sp, sp, #8
   1016c:	e8bd4070 	pop	{r4, r5, r6, lr}
   10170:	e12fff1e 	bx	lr
   10174:	00010254 	.word	0x00010254
   10178:	101f1000 	.word	0x101f1000
   1017c:	000102f8 	.word	0x000102f8
   10180:	000102ac 	.word	0x000102ac
   10184:	000100d0 	.word	0x000100d0
   10188:	00010274 	.word	0x00010274
   1018c:	000100a8 	.word	0x000100a8

00010190 <initial_task_func>:
   10190:	e92d4008 	push	{r3, lr}
   10194:	e59f0020 	ldr	r0, [pc, #32]	; 101bc <initial_task_func+0x2c>
   10198:	ebffffcd 	bl	100d4 <print_uart0>
   1019c:	e59f001c 	ldr	r0, [pc, #28]	; 101c0 <initial_task_func+0x30>
   101a0:	e5903000 	ldr	r3, [r0]
   101a4:	e5930010 	ldr	r0, [r3, #16]
   101a8:	e593c00c 	ldr	ip, [r3, #12]
   101ac:	e1a0e00f 	mov	lr, pc
   101b0:	e12fff1c 	bx	ip
   101b4:	e8bd4008 	pop	{r3, lr}
   101b8:	e12fff1e 	bx	lr
   101bc:	00010260 	.word	0x00010260
   101c0:	000102e4 	.word	0x000102e4

000101c4 <arch_task_initialize>:
   101c4:	e92d00f0 	push	{r4, r5, r6, r7}
   101c8:	e59dc010 	ldr	ip, [sp, #16]
   101cc:	e793410c 	ldr	r4, [r3, ip, lsl #2]
   101d0:	e083510c 	add	r5, r3, ip, lsl #2
   101d4:	e3c46007 	bic	r6, r4, #7
   101d8:	e3a04000 	mov	r4, #0
   101dc:	e783610c 	str	r6, [r3, ip, lsl #2]
   101e0:	e1a07004 	mov	r7, r4
   101e4:	e245602c 	sub	r6, r5, #44	; 0x2c
   101e8:	e1a03004 	mov	r3, r4
   101ec:	e283c001 	add	ip, r3, #1
   101f0:	e2833002 	add	r3, r3, #2
   101f4:	e353002c 	cmp	r3, #44	; 0x2c
   101f8:	e7867104 	str	r7, [r6, r4, lsl #2]
   101fc:	e786710c 	str	r7, [r6, ip, lsl #2]
   10200:	e1a04003 	mov	r4, r3
   10204:	1afffff8 	bne	101ec <arch_task_initialize+0x28>
   10208:	e59f3014 	ldr	r3, [pc, #20]	; 10224 <arch_task_initialize+0x60>
   1020c:	e505300c 	str	r3, [r5, #-12]
   10210:	e5806000 	str	r6, [r0]
   10214:	e580100c 	str	r1, [r0, #12]
   10218:	e5802010 	str	r2, [r0, #16]
   1021c:	e8bd00f0 	pop	{r4, r5, r6, r7}
   10220:	e12fff1e 	bx	lr
   10224:	00010190 	.word	0x00010190

00010228 <arch_context_switch>:
   10228:	e92d4008 	push	{r3, lr}
   1022c:	e59f300c 	ldr	r3, [pc, #12]	; 10240 <arch_context_switch+0x18>
   10230:	e5831000 	str	r1, [r3]
   10234:	ebffff81 	bl	10040 <arm_context_switch>
   10238:	e8bd4008 	pop	{r3, lr}
   1023c:	e12fff1e 	bx	lr
   10240:	000102e4 	.word	0x000102e4
